target datalayout = "e-m:e-p270:32:32-p271:32:32-p272:64:64-i64:64-i128:128-f80:128-n8:16:32:64-S128"
target triple = "x86_64-pc-linux-gnu"

%class.Blocks = type <{ %"class.std::set", ptr, i32, [4 x i8] }>
%"class.std::set" = type { %"class.std::_Rb_tree" }
%"class.std::_Rb_tree" = type { %"struct.std::_Rb_tree<Block *, Block *, std::_Identity<Block *>, std::less<Block *>>::_Rb_tree_impl" }
%"struct.std::_Rb_tree<Block *, Block *, std::_Identity<Block *>, std::less<Block *>>::_Rb_tree_impl" = type { %"struct.std::_Rb_tree_key_compare", %"struct.std::_Rb_tree_header" }
%"struct.std::_Rb_tree_key_compare" = type { %"struct.std::less" }
%"struct.std::less" = type { i8 }
%"struct.std::_Rb_tree_header" = type { %"struct.std::_Rb_tree_node_base", i64 }
%"struct.std::_Rb_tree_node_base" = type { i32, ptr, ptr, ptr }
%struct.VPSC = type <{ ptr, %class.Blocks, ptr, i32, [4 x i8] }>

@_ZTV4VPSC = unnamed_addr constant { [6 x ptr] } { [6 x ptr] [ptr null, ptr @_ZTI4VPSC, ptr @_ZN4VPSC7satisfyEv, ptr @_ZN4VPSC5solveEv, ptr @_ZN4VPSCD2Ev, ptr @_ZN4VPSCD0Ev] }, align 8

; Function Attrs: mustprogress uwtable
define void @_ZN4VPSCC2EjPP8VariablejPP10Constraint(ptr noundef nonnull align 8 dereferenceable(84) %0, i32 noundef %1, ptr noundef %2, i32 noundef %3, ptr noundef %4) unnamed_addr #4 align 2 {
  %6 = alloca ptr, align 8
  %7 = alloca i32, align 4
  %8 = alloca ptr, align 8
  %9 = alloca i32, align 4
  %10 = alloca ptr, align 8
  store ptr %0, ptr %6, align 8
  store i32 %1, ptr %7, align 4
  store ptr %2, ptr %8, align 8
  store i32 %3, ptr %9, align 4
  store ptr %4, ptr %10, align 8
  %11 = load ptr, ptr %6, align 8
  store ptr getelementptr inbounds ({ [6 x ptr] }, ptr @_ZTV4VPSC, i32 0, i32 0, i32 2), ptr %11, align 8
  %12 = getelementptr inbounds %struct.VPSC, ptr %11, i32 0, i32 1
  %13 = load i32, ptr %7, align 4
  %14 = load ptr, ptr %8, align 8
  call void @_ZN6BlocksC1EiPP8Variable(ptr noundef nonnull align 8 dereferenceable(60) %12, i32 noundef %13, ptr noundef %14)
  %15 = getelementptr inbounds %struct.VPSC, ptr %11, i32 0, i32 2
  %16 = load ptr, ptr %10, align 8
  store ptr %16, ptr %15, align 8
  %17 = getelementptr inbounds %struct.VPSC, ptr %11, i32 0, i32 3
  %18 = load i32, ptr %9, align 4
  store i32 %18, ptr %17, align 8
  ret void
}