; Function Attrs: mustprogress uwtable
define void @_ZN4VPSCC2EjPP8VariablejPP10Constraint(ptr noundef nonnull align 8 dereferenceable(84) %0, i32 noundef %1, ptr noundef %2, i32 noundef %3, ptr noundef %4) unnamed_addr #3 align 2 {
  store ptr getelementptr inbounds ({ [6 x ptr] }, ptr @_ZTV4VPSC, i64 0, i32 0, i64 2), ptr %0, align 8
  %6 = getelementptr inbounds i8, ptr %0, i64 8
  tail call void @_ZN6BlocksC1EiPP8Variable(ptr noundef nonnull align 8 dereferenceable(60) %6, i32 noundef %1, ptr noundef %2)
  %7 = getelementptr inbounds i8, ptr %0, i64 72
  store ptr %4, ptr %7, align 8
  %8 = getelementptr inbounds i8, ptr %0, i64 80
  store i32 %3, ptr %8, align 8
  ret void
}